; Function Attrs: mustprogress nounwind uwtable
define dso_local { ptr, ptr } @_ZN4llvm15OpenMPIRBuilder27createForStaticInitFunctionEjbb(ptr noundef nonnull align 8 dereferenceable(3104) %0, i32 noundef %1, i1 noundef zeroext %2, i1 noundef zeroext %3) local_unnamed_addr #0 align 2 {
  %5 = icmp eq i32 %1, 32
  br i1 %3, label %6, label %10

6:                                                ; preds = %4
  %7 = select i1 %2, i32 66, i32 67
  %8 = select i1 %2, i32 68, i32 69
  %9 = select i1 %5, i32 %7, i32 %8
  br label %14

10:                                               ; preds = %4
  %11 = select i1 %2, i32 61, i32 62
  %12 = select i1 %2, i32 63, i32 64
  %13 = select i1 %5, i32 %11, i32 %12
  br label %14

14:                                               ; preds = %10, %6
  %.0 = phi i32 [ %9, %6 ], [ %13, %10 ]
  %15 = getelementptr inbounds nuw i8, ptr %0, i64 504
  %16 = load ptr, ptr %15, align 8
  %17 = tail call { ptr, ptr } @_ZN4llvm15OpenMPIRBuilder26getOrCreateRuntimeFunctionERNS_6ModuleENS_3omp15RuntimeFunctionE(ptr noundef nonnull align 8 dereferenceable(3104) %0, ptr noundef nonnull align 8 dereferenceable(857) %16, i32 noundef %.0)
  ret { ptr, ptr } %17
}